Certificate:
    Data:
        Version: 3 (0x2)
        Serial Number:
            6f:da:ea:6d:64:d8:f1:41:0d:69:5d:fa:a7:bc:ce:f1:f9:5a:37:18
        Signature Algorithm: sha256WithRSAEncryption
        Issuer: C=CN, ST=ZheJiang , L=HuZhou, O=Future Machine Research Institute, OU=Domain Control Validated, CN=Future Machine Research Institute
        Validity
            Not Before: Oct 10 10:40:32 2022 GMT
            Not After : Oct 10 10:40:32 2023 GMT
        Subject: C=CN, ST=ZheJiang , L=HuZhou, O=Future Machine Research Institute, OU=Domain Control Validated, CN=Future Machine Research Institute
        Subject Public Key Info:
            Public Key Algorithm: rsaEncryption
                Public-Key: (2048 bit)
                Modulus:
                    00:af:74:58:0a:05:73:2a:31:01:e5:1d:86:5f:92:
                    02:75:75:56:0e:b4:5f:8d:69:c6:81:c5:e4:74:b7:
                    7a:ab:72:98:fb:8b:97:c7:9b:8c:8c:cc:d1:e4:b7:
                    17:87:ff:4a:d5:74:f8:54:1f:c8:26:44:da:79:4d:
                    f3:43:2f:c9:c0:bd:e1:fd:c6:23:05:3f:4a:e9:d0:
                    48:14:b9:22:0c:97:70:14:01:55:88:35:02:af:24:
                    d7:33:c5:72:01:eb:57:a1:7e:a1:df:db:c8:00:63:
                    90:29:c3:02:eb:23:62:95:06:73:ad:86:e5:7b:c1:
                    43:38:12:3d:2a:06:16:09:68:be:04:9e:b2:9e:26:
                    bb:b4:48:36:64:cc:c1:fe:fe:a6:5a:25:20:2c:6b:
                    8b:7f:27:e6:04:13:20:41:6a:d0:50:37:7a:f7:5b:
                    4c:91:72:91:1f:9c:c1:a9:4a:30:ad:cf:76:35:58:
                    82:98:f8:ad:fd:b6:f5:42:7d:90:d0:79:57:68:6c:
                    5f:1d:3e:74:68:a3:05:f7:a1:94:1b:d2:1e:fb:57:
                    60:9f:9c:78:bc:57:09:b7:fa:70:fc:1c:ae:f5:99:
                    4e:ef:c6:4a:02:21:c8:30:b5:7c:5f:ed:4e:c6:df:
                    cd:71:24:77:53:13:2b:07:90:f7:83:b5:e0:4c:ef:
                    87:0f
                Exponent: 65537 (0x10001)
        X509v3 extensions:
            X509v3 Subject Key Identifier: 
                39:0F:13:61:19:44:60:75:8D:03:D4:45:46:D4:71:59:21:27:0B:B6
            X509v3 Authority Key Identifier: 
                39:0F:13:61:19:44:60:75:8D:03:D4:45:46:D4:71:59:21:27:0B:B6
            X509v3 Basic Constraints: critical
                CA:TRUE
    Signature Algorithm: sha256WithRSAEncryption
    Signature Value:
        09:c3:ad:4a:eb:54:4b:5c:c3:eb:b8:e2:d7:af:0b:3c:68:56:
        82:bd:04:39:27:66:3d:67:aa:2c:ec:62:9c:bb:29:24:85:ff:
        57:cc:01:d1:f7:d6:d2:b1:93:23:fb:66:e0:69:be:29:00:a2:
        50:ef:87:0d:4f:ed:33:de:4b:22:4c:17:dd:9d:b2:73:aa:a2:
        d9:55:dd:f1:3d:10:b4:25:08:56:fe:d9:d9:ad:86:d1:68:fc:
        ab:ab:54:a2:39:d0:64:29:af:0a:fe:66:55:e0:13:8c:7f:05:
        04:b9:e5:81:71:54:d8:03:d3:2e:2c:11:7b:49:91:d4:db:d9:
        43:f4:f1:66:4d:27:c5:de:42:1a:a7:53:40:ef:3e:09:0a:b8:
        ce:29:89:24:53:b1:24:72:37:8f:bc:7f:a3:cd:1d:df:e3:b9:
        c6:a6:57:ac:b9:47:3c:4e:34:10:d9:f1:ae:ac:b3:39:0a:d2:
        e1:81:ac:59:46:74:4f:71:2b:43:6e:c6:14:a8:66:bb:8c:0b:
        80:bf:5f:7c:76:da:65:ec:a0:7e:1c:fd:96:09:e5:4f:aa:3b:
        80:a8:f4:71:85:a6:3d:b2:c5:9a:43:b3:28:85:f1:30:12:ec:
        9d:a1:68:f5:1c:48:94:ac:79:60:d9:b0:81:0c:e5:e0:65:54:
        3a:a3:5a:4c
-----BEGIN CERTIFICATE-----
MIIEPTCCAyWgAwIBAgIUb9rqbWTY8UENaV36p7zO8flaNxgwDQYJKoZIhvcNAQEL
BQAwga0xCzAJBgNVBAYTAkNOMRIwEAYDVQQIDAlaaGVKaWFuZyAxDzANBgNVBAcM
Bkh1WmhvdTEqMCgGA1UECgwhRnV0dXJlIE1hY2hpbmUgUmVzZWFyY2ggSW5zdGl0
dXRlMSEwHwYDVQQLDBhEb21haW4gQ29udHJvbCBWYWxpZGF0ZWQxKjAoBgNVBAMM
IUZ1dHVyZSBNYWNoaW5lIFJlc2VhcmNoIEluc3RpdHV0ZTAeFw0yMjEwMTAxMDQw
MzJaFw0yMzEwMTAxMDQwMzJaMIGtMQswCQYDVQQGEwJDTjESMBAGA1UECAwJWmhl
SmlhbmcgMQ8wDQYDVQQHDAZIdVpob3UxKjAoBgNVBAoMIUZ1dHVyZSBNYWNoaW5l
IFJlc2VhcmNoIEluc3RpdHV0ZTEhMB8GA1UECwwYRG9tYWluIENvbnRyb2wgVmFs
aWRhdGVkMSowKAYDVQQDDCFGdXR1cmUgTWFjaGluZSBSZXNlYXJjaCBJbnN0aXR1
dGUwggEiMA0GCSqGSIb3DQEBAQUAA4IBDwAwggEKAoIBAQCvdFgKBXMqMQHlHYZf
kgJ1dVYOtF+NacaBxeR0t3qrcpj7i5fHm4yMzNHktxeH/0rVdPhUH8gmRNp5TfND
L8nAveH9xiMFP0rp0EgUuSIMl3AUAVWINQKvJNczxXIB61ehfqHf28gAY5ApwwLr
I2KVBnOthuV7wUM4Ej0qBhYJaL4EnrKeJru0SDZkzMH+/qZaJSAsa4t/J+YEEyBB
atBQN3r3W0yRcpEfnMGpSjCtz3Y1WIKY+K39tvVCfZDQeVdobF8dPnRoowX3oZQb
0h77V2CfnHi8Vwm3+nD8HK71mU7vxkoCIcgwtXxf7U7G381xJHdTEysHkPeDteBM
74cPAgMBAAGjUzBRMB0GA1UdDgQWBBQ5DxNhGURgdY0D1EVG1HFZIScLtjAfBgNV
HSMEGDAWgBQ5DxNhGURgdY0D1EVG1HFZIScLtjAPBgNVHRMBAf8EBTADAQH/MA0G
CSqGSIb3DQEBCwUAA4IBAQAJw61K61RLXMPruOLXrws8aFaCvQQ5J2Y9Z6os7GKc
uykkhf9XzAHR99bSsZMj+2bgab4pAKJQ74cNT+0z3ksiTBfdnbJzqqLZVd3xPRC0
JQhW/tnZrYbRaPyrq1SiOdBkKa8K/mZV4BOMfwUEueWBcVTYA9MuLBF7SZHU29lD
9PFmTSfF3kIap1NA7z4JCrjOKYkkU7EkcjePvH+jzR3f47nGplesuUc8TjQQ2fGu
rLM5CtLhgaxZRnRPcStDbsYUqGa7jAuAv198dtpl7KB+HP2WCeVPqjuAqPRxhaY9
ssWaQ7MohfEwEuydoWj1HEiUrHlg2bCBDOXgZVQ6o1pM
-----END CERTIFICATE-----
